; Function Attrs: nounwind uwtable
define ptr @l_Std_Tactic_BVDecide_BVLogicalExpr_bitblast(ptr noundef %0) local_unnamed_addr #0 {
  %2 = load ptr, ptr @l_Std_Sat_AIG_empty___at_Std_Tactic_BVDecide_BVLogicalExpr_bitblast___spec__1, align 8, !tbaa !4
  %3 = load ptr, ptr @l_Std_Sat_AIG_empty___at_Std_Tactic_BVDecide_BVLogicalExpr_bitblast___spec__1___closed__5, align 8, !tbaa !4
  %4 = tail call ptr @l_Std_Tactic_BVDecide_BVLogicalExpr_bitblast_go(ptr noundef %2, ptr noundef %0, ptr noundef %3)
  %5 = getelementptr inbounds nuw i8, ptr %4, i64 8
  %6 = load ptr, ptr %5, align 8, !tbaa !4
  %7 = ptrtoint ptr %6 to i64
  %8 = and i64 %7, 1
  %.not = icmp eq i64 %8, 0
  br i1 %.not, label %9, label %lean_inc.exit

9:                                                ; preds = %1
  %.val.i = load i32, ptr %6, align 4, !tbaa !8
  %10 = icmp sgt i32 %.val.i, 0
  br i1 %10, label %11, label %13, !prof !11

11:                                               ; preds = %9
  %12 = add nuw i32 %.val.i, 1
  store i32 %12, ptr %6, align 4, !tbaa !8
  br label %lean_inc.exit

13:                                               ; preds = %9
  %.not.i7 = icmp eq i32 %.val.i, 0
  br i1 %.not.i7, label %lean_inc.exit, label %14

14:                                               ; preds = %13
  tail call void @lean_inc_ref_cold(ptr noundef nonnull %6) #4
  br label %lean_inc.exit

lean_inc.exit:                                    ; preds = %14, %13, %11, %1
  %15 = ptrtoint ptr %4 to i64
  %16 = and i64 %15, 1
  %.not8 = icmp eq i64 %16, 0
  br i1 %.not8, label %17, label %lean_dec.exit

17:                                               ; preds = %lean_inc.exit
  %18 = load i32, ptr %4, align 4, !tbaa !8
  %19 = icmp sgt i32 %18, 1
  br i1 %19, label %20, label %22, !prof !11

20:                                               ; preds = %17
  %21 = add nsw i32 %18, -1
  store i32 %21, ptr %4, align 4, !tbaa !8
  br label %lean_dec.exit

22:                                               ; preds = %17
  %.not.i = icmp eq i32 %18, 0
  br i1 %.not.i, label %lean_dec.exit, label %23

23:                                               ; preds = %22
  tail call void @lean_dec_ref_cold(ptr noundef nonnull %4) #4
  br label %lean_dec.exit

lean_dec.exit:                                    ; preds = %23, %22, %20, %lean_inc.exit
  ret ptr %6
}